target datalayout = "e-m:e-p270:32:32-p271:32:32-p272:64:64-i64:64-i128:128-f80:128-n8:16:32:64-S128"
target triple = "x86_64-pc-linux-gnu"

%struct.pg_locale_struct = type { i8, i8, i8, i8, i8, ptr, %union.anon }
%union.anon = type { %struct.anon }
%struct.anon = type { ptr, i8 }
%struct.__locale_struct = type { [13 x ptr], ptr, ptr, ptr, [13 x ptr] }

@pg_regex_strategy = internal global i32 0, align 4
@pg_regex_locale = internal global ptr null, align 8
@pg_char_properties = internal constant [128 x i8] c"\00\00\00\00\00\00\00\00\00\80\80\80\80\80\00\00\00\00\00\00\00\00\00\00\00\00\00\00\00\00\00\00\A0ppppppppppppppp1111111111ppppppp66666666666666666666666666pppppp::::::::::::::::::::::::::pppp\00", align 16

; Function Attrs: nounwind uwtable
define internal i32 @pg_wc_islower(i32 noundef %0) #0 {
  %2 = alloca i32, align 4
  %3 = alloca i32, align 4
  store i32 %0, ptr %3, align 4
  %4 = load i32, ptr @pg_regex_strategy, align 4
  switch i32 %4, label %54 [
    i32 0, label %5
    i32 1, label %19
    i32 2, label %23
    i32 3, label %29
    i32 4, label %50
  ]

5:                                                ; preds = %1
  %6 = load i32, ptr %3, align 4
  %7 = icmp ule i32 %6, 127
  br i1 %7, label %8, label %16

8:                                                ; preds = %5
  %9 = load i32, ptr %3, align 4
  %10 = zext i32 %9 to i64
  %11 = getelementptr inbounds nuw [128 x i8], ptr @pg_char_properties, i64 0, i64 %10
  %12 = load i8, ptr %11, align 1
  %13 = zext i8 %12 to i32
  %14 = and i32 %13, 8
  %15 = icmp ne i32 %14, 0
  br label %16

16:                                               ; preds = %8, %5
  %17 = phi i1 [ false, %5 ], [ %15, %8 ]
  %18 = zext i1 %17 to i32
  store i32 %18, ptr %2, align 4
  br label %55

19:                                               ; preds = %1
  %20 = load i32, ptr %3, align 4
  %21 = call zeroext i1 @pg_u_islower(i32 noundef %20)
  %22 = zext i1 %21 to i32
  store i32 %22, ptr %2, align 4
  br label %55

23:                                               ; preds = %1
  %24 = load i32, ptr %3, align 4
  %25 = load ptr, ptr @pg_regex_locale, align 8
  %26 = getelementptr inbounds nuw %struct.pg_locale_struct, ptr %25, i32 0, i32 6
  %27 = load ptr, ptr %26, align 8
  %28 = call i32 @iswlower_l(i32 noundef %24, ptr noundef %27) #12
  store i32 %28, ptr %2, align 4
  br label %55

29:                                               ; preds = %1
  %30 = load i32, ptr %3, align 4
  %31 = icmp ule i32 %30, 255
  br i1 %31, label %32, label %47

32:                                               ; preds = %29
  %33 = load ptr, ptr @pg_regex_locale, align 8
  %34 = getelementptr inbounds nuw %struct.pg_locale_struct, ptr %33, i32 0, i32 6
  %35 = load ptr, ptr %34, align 8
  %36 = getelementptr inbounds nuw %struct.__locale_struct, ptr %35, i32 0, i32 1
  %37 = load ptr, ptr %36, align 8
  %38 = load i32, ptr %3, align 4
  %39 = trunc i32 %38 to i8
  %40 = zext i8 %39 to i32
  %41 = sext i32 %40 to i64
  %42 = getelementptr inbounds i16, ptr %37, i64 %41
  %43 = load i16, ptr %42, align 2
  %44 = zext i16 %43 to i32
  %45 = and i32 %44, 512
  %46 = icmp ne i32 %45, 0
  br label %47

47:                                               ; preds = %32, %29
  %48 = phi i1 [ false, %29 ], [ %46, %32 ]
  %49 = zext i1 %48 to i32
  store i32 %49, ptr %2, align 4
  br label %55

50:                                               ; preds = %1
  %51 = load i32, ptr %3, align 4
  %52 = call signext i8 @u_islower_70(i32 noundef %51)
  %53 = sext i8 %52 to i32
  store i32 %53, ptr %2, align 4
  br label %55

54:                                               ; preds = %1
  store i32 0, ptr %2, align 4
  br label %55

55:                                               ; preds = %54, %50, %47, %23, %19, %16
  %56 = load i32, ptr %2, align 4
  ret i32 %56
}