; Function Attrs: nounwind uwtable
define internal i32 @pg_wc_islower(i32 noundef %0) #0 {
  %2 = load i32, ptr @pg_regex_strategy, align 4
  switch i32 %2, label %default.unreachable [
    i32 0, label %3
    i32 1, label %6
    i32 2, label %9
    i32 3, label %14
    i32 4, label %27
  ]

3:                                                ; preds = %1
  %4 = add i32 %0, -97
  %narrow = icmp ult i32 %4, 26
  %5 = zext i1 %narrow to i32
  br label %30

6:                                                ; preds = %1
  %7 = tail call zeroext i1 @pg_u_islower(i32 noundef %0) #20
  %8 = zext i1 %7 to i32
  br label %30

9:                                                ; preds = %1
  %10 = load ptr, ptr @pg_regex_locale, align 8
  %11 = getelementptr inbounds nuw i8, ptr %10, i64 16
  %12 = load ptr, ptr %11, align 8
  %13 = tail call i32 @iswlower_l(i32 noundef %0, ptr noundef %12) #20
  br label %30

14:                                               ; preds = %1
  %15 = icmp ult i32 %0, 256
  br i1 %15, label %16, label %30

16:                                               ; preds = %14
  %17 = load ptr, ptr @pg_regex_locale, align 8
  %18 = getelementptr inbounds nuw i8, ptr %17, i64 16
  %19 = load ptr, ptr %18, align 8
  %20 = getelementptr inbounds nuw i8, ptr %19, i64 104
  %21 = load ptr, ptr %20, align 8
  %22 = zext nneg i32 %0 to i64
  %23 = getelementptr inbounds nuw i16, ptr %21, i64 %22
  %24 = load i16, ptr %23, align 2
  %25 = lshr i16 %24, 9
  %.lobit = and i16 %25, 1
  %26 = zext nneg i16 %.lobit to i32
  br label %30

27:                                               ; preds = %1
  %28 = tail call signext i8 @u_islower_70(i32 noundef %0) #20
  %29 = sext i8 %28 to i32
  br label %30

default.unreachable:                              ; preds = %1
  unreachable

30:                                               ; preds = %14, %16, %27, %9, %6, %3
  %.0 = phi i32 [ %29, %27 ], [ %13, %9 ], [ %8, %6 ], [ %5, %3 ], [ 0, %14 ], [ %26, %16 ]
  ret i32 %.0
}